; ModuleID = '7/1036.c'
source_filename = "7/1036.c"
target datalayout = "e-m:e-p270:32:32-p271:32:32-p272:64:64-i64:64-f80:128-n8:16:32:64-S128"
target triple = "x86_64-pc-linux-gnu"

@.str = private unnamed_addr constant [3 x i8] c"%s\00", align 1

; Function Attrs: noinline nounwind uwtable
define dso_local i32 @main() #0 {
  %1 = alloca i32, align 4
  %2 = alloca i32, align 4
  %3 = alloca i32, align 4
  %4 = alloca i32, align 4
  %5 = alloca i32, align 4
  %6 = alloca i32, align 4
  %7 = alloca [256 x i8], align 16
  %8 = alloca [20 x i8], align 16
  %9 = alloca [20 x i8], align 16
  store i32 0, i32* %1, align 4
  %10 = getelementptr inbounds [256 x i8], [256 x i8]* %7, i64 0, i64 0
  %11 = call i32 (i8*, ...) @__isoc99_scanf(i8* getelementptr inbounds ([3 x i8], [3 x i8]* @.str, i64 0, i64 0), i8* %10)
  %12 = getelementptr inbounds [20 x i8], [20 x i8]* %8, i64 0, i64 0
  %13 = call i32 (i8*, ...) @__isoc99_scanf(i8* getelementptr inbounds ([3 x i8], [3 x i8]* @.str, i64 0, i64 0), i8* %12)
  %14 = getelementptr inbounds [20 x i8], [20 x i8]* %9, i64 0, i64 0
  %15 = call i32 (i8*, ...) @__isoc99_scanf(i8* getelementptr inbounds ([3 x i8], [3 x i8]* @.str, i64 0, i64 0), i8* %14)
  store i32 0, i32* %2, align 4
  br label %16

16:                                               ; preds = %25, %0
  %17 = load i32, i32* %2, align 4
  %18 = sext i32 %17 to i64
  %19 = getelementptr inbounds [20 x i8], [20 x i8]* %8, i64 0, i64 %18
  %20 = load i8, i8* %19, align 1
  %21 = sext i8 %20 to i32
  %22 = icmp ne i32 %21, 0
  br i1 %22, label %23, label %28

23:                                               ; preds = %16
  %24 = load i32, i32* %2, align 4
  store i32 %24, i32* %5, align 4
  br label %25

25:                                               ; preds = %23
  %26 = load i32, i32* %2, align 4
  %27 = add nsw i32 %26, 1
  store i32 %27, i32* %2, align 4
  br label %16

28:                                               ; preds = %16
  store i32 0, i32* %2, align 4
  br label %29

29:                                               ; preds = %112, %28
  %30 = load i32, i32* %2, align 4
  %31 = sext i32 %30 to i64
  %32 = getelementptr inbounds [256 x i8], [256 x i8]* %7, i64 0, i64 %31
  %33 = load i8, i8* %32, align 1
  %34 = sext i8 %33 to i32
  %35 = icmp ne i32 %34, 0
  br i1 %35, label %36, label %115

36:                                               ; preds = %29
  store i32 0, i32* %6, align 4
  %37 = load i32, i32* %2, align 4
  %38 = sext i32 %37 to i64
  %39 = getelementptr inbounds [256 x i8], [256 x i8]* %7, i64 0, i64 %38
  %40 = load i8, i8* %39, align 1
  %41 = sext i8 %40 to i32
  %42 = getelementptr inbounds [20 x i8], [20 x i8]* %8, i64 0, i64 0
  %43 = load i8, i8* %42, align 16
  %44 = sext i8 %43 to i32
  %45 = icmp eq i32 %41, %44
  br i1 %45, label %46, label %106

46:                                               ; preds = %36
  %47 = load i32, i32* %2, align 4
  store i32 %47, i32* %3, align 4
  br label %48

48:                                               ; preds = %73, %46
  %49 = load i32, i32* %3, align 4
  %50 = load i32, i32* %2, align 4
  %51 = sub nsw i32 %49, %50
  %52 = sext i32 %51 to i64
  %53 = getelementptr inbounds [20 x i8], [20 x i8]* %8, i64 0, i64 %52
  %54 = load i8, i8* %53, align 1
  %55 = sext i8 %54 to i32
  %56 = icmp ne i32 %55, 0
  br i1 %56, label %57, label %76

57:                                               ; preds = %48
  %58 = load i32, i32* %3, align 4
  %59 = sext i32 %58 to i64
  %60 = getelementptr inbounds [256 x i8], [256 x i8]* %7, i64 0, i64 %59
  %61 = load i8, i8* %60, align 1
  %62 = sext i8 %61 to i32
  %63 = load i32, i32* %3, align 4
  %64 = load i32, i32* %2, align 4
  %65 = sub nsw i32 %63, %64
  %66 = sext i32 %65 to i64
  %67 = getelementptr inbounds [20 x i8], [20 x i8]* %8, i64 0, i64 %66
  %68 = load i8, i8* %67, align 1
  %69 = sext i8 %68 to i32
  %70 = icmp ne i32 %62, %69
  br i1 %70, label %71, label %72

71:                                               ; preds = %57
  br label %76

72:                                               ; preds = %57
  br label %73

73:                                               ; preds = %72
  %74 = load i32, i32* %3, align 4
  %75 = add nsw i32 %74, 1
  store i32 %75, i32* %3, align 4
  br label %48

76:                                               ; preds = %71, %48
  %77 = load i32, i32* %3, align 4
  %78 = load i32, i32* %2, align 4
  %79 = load i32, i32* %5, align 4
  %80 = add nsw i32 %78, %79
  %81 = add nsw i32 %80, 1
  %82 = icmp eq i32 %77, %81
  br i1 %82, label %83, label %105

83:                                               ; preds = %76
  store i32 1, i32* %6, align 4
  %84 = load i32, i32* %2, align 4
  store i32 %84, i32* %3, align 4
  br label %85

85:                                               ; preds = %101, %83
  %86 = load i32, i32* %3, align 4
  %87 = load i32, i32* %2, align 4
  %88 = load i32, i32* %5, align 4
  %89 = add nsw i32 %87, %88
  %90 = icmp sle i32 %86, %89
  br i1 %90, label %91, label %104

91:                                               ; preds = %85
  %92 = load i32, i32* %3, align 4
  %93 = load i32, i32* %2, align 4
  %94 = sub nsw i32 %92, %93
  %95 = sext i32 %94 to i64
  %96 = getelementptr inbounds [20 x i8], [20 x i8]* %9, i64 0, i64 %95
  %97 = load i8, i8* %96, align 1
  %98 = load i32, i32* %3, align 4
  %99 = sext i32 %98 to i64
  %100 = getelementptr inbounds [256 x i8], [256 x i8]* %7, i64 0, i64 %99
  store i8 %97, i8* %100, align 1
  br label %101

101:                                              ; preds = %91
  %102 = load i32, i32* %3, align 4
  %103 = add nsw i32 %102, 1
  store i32 %103, i32* %3, align 4
  br label %85

104:                                              ; preds = %85
  br label %105

105:                                              ; preds = %104, %76
  br label %107

106:                                              ; preds = %36
  br label %112

107:                                              ; preds = %105
  %108 = load i32, i32* %6, align 4
  %109 = icmp eq i32 %108, 1
  br i1 %109, label %110, label %111

110:                                              ; preds = %107
  br label %115

111:                                              ; preds = %107
  br label %112

112:                                              ; preds = %111, %106
  %113 = load i32, i32* %2, align 4
  %114 = add nsw i32 %113, 1
  store i32 %114, i32* %2, align 4
  br label %29

115:                                              ; preds = %110, %29
  %116 = getelementptr inbounds [256 x i8], [256 x i8]* %7, i64 0, i64 0
  %117 = call i32 (i8*, ...) @printf(i8* getelementptr inbounds ([3 x i8], [3 x i8]* @.str, i64 0, i64 0), i8* %116)
  %118 = call i32 @getchar()
  %119 = call i32 @getchar()
  %120 = load i32, i32* %1, align 4
  ret i32 %120
}

declare dso_local i32 @__isoc99_scanf(i8*, ...) #1

declare dso_local i32 @printf(i8*, ...) #1

declare dso_local i32 @getchar() #1


!llvm.module.flags = !{!0}
!llvm.ident = !{!1}

!0 = !{i32 1, !"wchar_size", i32 4}
!1 = !{!"clang version 10.0.0-4ubuntu1 "}
